
./veer/tempFiles/TESTNV.exe:     file format elf32-littleriscv


Disassembly of section .text:

80000000 <_start>:
80000000:	70040517          	auipc	a0,0x70040
80000004:	00050513          	mv	a0,a0
80000008:	70040597          	auipc	a1,0x70040
8000000c:	05c5a583          	lw	a1,92(a1) # f0040064 <size>
80000010:	28b5                	jal	8000008c <printToLog>
80000012:	70040517          	auipc	a0,0x70040
80000016:	fee50513          	addi	a0,a0,-18 # f0040000 <matrix>
8000001a:	70040597          	auipc	a1,0x70040
8000001e:	04a5a583          	lw	a1,74(a1) # f0040064 <size>
80000022:	2819                	jal	80000038 <transpose>
80000024:	70040517          	auipc	a0,0x70040
80000028:	fdc50513          	addi	a0,a0,-36 # f0040000 <matrix>
8000002c:	70040597          	auipc	a1,0x70040
80000030:	0385a583          	lw	a1,56(a1) # f0040064 <size>
80000034:	28a1                	jal	8000008c <printToLog>
80000036:	a041                	j	800000b6 <_finish>

80000038 <transpose>:
80000038:	1141                	addi	sp,sp,-16
8000003a:	c606                	sw	ra,12(sp)
8000003c:	c422                	sw	s0,8(sp)
8000003e:	c226                	sw	s1,4(sp)
80000040:	c04a                	sw	s2,0(sp)
80000042:	842a                	mv	s0,a0
80000044:	84ae                	mv	s1,a1
80000046:	4281                	li	t0,0

80000048 <outer_loop>:
80000048:	0292dc63          	bge	t0,s1,80000080 <end_transpose>
8000004c:	00128313          	addi	t1,t0,1

80000050 <inner_loop>:
80000050:	02935663          	bge	t1,s1,8000007c <next_row>
80000054:	029283b3          	mul	t2,t0,s1
80000058:	939a                	add	t2,t2,t1
8000005a:	038a                	slli	t2,t2,0x2
8000005c:	02930e33          	mul	t3,t1,s1
80000060:	9e16                	add	t3,t3,t0
80000062:	0e0a                	slli	t3,t3,0x2
80000064:	93a2                	add	t2,t2,s0
80000066:	9e22                	add	t3,t3,s0
80000068:	0003a007          	flw	ft0,0(t2)
8000006c:	000e2087          	flw	ft1,0(t3)
80000070:	0013a027          	fsw	ft1,0(t2)
80000074:	000e2027          	fsw	ft0,0(t3)
80000078:	0305                	addi	t1,t1,1
8000007a:	bfd9                	j	80000050 <inner_loop>

8000007c <next_row>:
8000007c:	0285                	addi	t0,t0,1
8000007e:	b7e9                	j	80000048 <outer_loop>

80000080 <end_transpose>:
80000080:	40b2                	lw	ra,12(sp)
80000082:	4422                	lw	s0,8(sp)
80000084:	4492                	lw	s1,4(sp)
80000086:	4902                	lw	s2,0(sp)
80000088:	0141                	addi	sp,sp,16
8000008a:	8082                	ret

8000008c <printToLog>:
8000008c:	12300293          	li	t0,291
80000090:	45600293          	li	t0,1110
80000094:	85ae                	mv	a1,a1
80000096:	82aa                	mv	t0,a0
80000098:	02b58333          	mul	t1,a1,a1
8000009c:	030a                	slli	t1,t1,0x2
8000009e:	932a                	add	t1,t1,a0

800000a0 <printMatrixLoop>:
800000a0:	0062d663          	bge	t0,t1,800000ac <printMatrixLoopEnd>
800000a4:	0002a007          	flw	ft0,0(t0)
800000a8:	0291                	addi	t0,t0,4
800000aa:	bfdd                	j	800000a0 <printMatrixLoop>

800000ac <printMatrixLoopEnd>:
800000ac:	12300293          	li	t0,291
800000b0:	45600293          	li	t0,1110
800000b4:	8082                	ret

800000b6 <_finish>:
800000b6:	d05801b7          	lui	gp,0xd0580
800000ba:	0ff00293          	li	t0,255
800000be:	00518023          	sb	t0,0(gp) # d0580000 <_end+0x5057fe72>
800000c2:	fe000ae3          	beqz	zero,800000b6 <_finish>
800000c6:	0001                	nop
800000c8:	0001                	nop
800000ca:	0001                	nop
800000cc:	0001                	nop
800000ce:	0001                	nop
800000d0:	0001                	nop
800000d2:	0001                	nop
800000d4:	0001                	nop
800000d6:	0001                	nop
800000d8:	0001                	nop
800000da:	0001                	nop
800000dc:	0001                	nop
800000de:	0001                	nop
800000e0:	0001                	nop
800000e2:	0001                	nop
800000e4:	0001                	nop
800000e6:	0001                	nop
800000e8:	0001                	nop
800000ea:	0001                	nop
800000ec:	0001                	nop
800000ee:	0001                	nop
800000f0:	0001                	nop
800000f2:	0001                	nop
800000f4:	0001                	nop
800000f6:	0001                	nop
800000f8:	0001                	nop
800000fa:	0001                	nop
800000fc:	0001                	nop
800000fe:	0001                	nop
80000100:	0001                	nop
80000102:	0001                	nop
80000104:	0001                	nop
80000106:	0001                	nop
80000108:	0001                	nop
8000010a:	0001                	nop
8000010c:	0001                	nop
8000010e:	0001                	nop
80000110:	0001                	nop
80000112:	0001                	nop
80000114:	0001                	nop
80000116:	0001                	nop
80000118:	0001                	nop
8000011a:	0001                	nop
8000011c:	0001                	nop
8000011e:	0001                	nop
80000120:	0001                	nop
80000122:	0001                	nop
80000124:	0001                	nop
80000126:	0001                	nop
80000128:	0001                	nop
8000012a:	0001                	nop
8000012c:	0001                	nop
8000012e:	0001                	nop
80000130:	0001                	nop
80000132:	0001                	nop
80000134:	0001                	nop
80000136:	0001                	nop
80000138:	0001                	nop
8000013a:	0001                	nop
8000013c:	0001                	nop
8000013e:	0001                	nop
80000140:	0001                	nop
80000142:	0001                	nop
80000144:	0001                	nop
80000146:	0001                	nop
80000148:	0001                	nop
8000014a:	0001                	nop
8000014c:	0001                	nop
8000014e:	0001                	nop
80000150:	0001                	nop
80000152:	0001                	nop
80000154:	0001                	nop
80000156:	0001                	nop
80000158:	0001                	nop
8000015a:	0001                	nop
8000015c:	0001                	nop
8000015e:	0001                	nop
80000160:	0001                	nop
80000162:	0001                	nop
80000164:	0001                	nop
80000166:	0001                	nop
80000168:	0001                	nop
8000016a:	0001                	nop
8000016c:	0001                	nop
8000016e:	0001                	nop
80000170:	0001                	nop
80000172:	0001                	nop
80000174:	0001                	nop
80000176:	0001                	nop
80000178:	0001                	nop
8000017a:	0001                	nop
8000017c:	0001                	nop
8000017e:	0001                	nop
80000180:	0001                	nop
80000182:	0001                	nop
80000184:	0001                	nop
80000186:	0001                	nop
80000188:	0001                	nop
8000018a:	0001                	nop
8000018c:	0001                	nop
